target datalayout = "e-m:e-p270:32:32-p271:32:32-p272:64:64-i64:64-i128:128-f80:128-n8:16:32:64-S128"
target triple = "x86_64-pc-linux-gnu"

%struct.optstruct = type { ptr, ptr, ptr, i64, i32, i32, i32, i32, ptr, ptr, ptr }

@.str = private unnamed_addr constant [25 x i8] c"Can't send to clamd: %s\0A\00", align 1
@.str.9 = private unnamed_addr constant [16 x i8] c"StreamMaxLength\00", align 1
@__const.send_stream.zINSTREAM = private unnamed_addr constant [10 x i8] c"zINSTREAM\00", align 1
@.str.10 = private unnamed_addr constant [32 x i8] c"%s: Failed to open file. ERROR\0A\00", align 1
@.str.11 = private unnamed_addr constant [25 x i8] c"Failed to read from %s.\0A\00", align 1
@.str.12 = private unnamed_addr constant [6 x i8] c"STDIN\00", align 1

; Function Attrs: nounwind uwtable
define i32 @sendln(i32 noundef %0, ptr noundef %1, i32 noundef %2) #0 {
  %4 = alloca i32, align 4
  %5 = alloca i32, align 4
  %6 = alloca ptr, align 8
  %7 = alloca i32, align 4
  %8 = alloca i32, align 4
  store i32 %0, ptr %5, align 4
  store ptr %1, ptr %6, align 8
  store i32 %2, ptr %7, align 4
  br label %9

9:                                                ; preds = %34, %28, %3
  %10 = load i32, ptr %7, align 4
  %11 = icmp ne i32 %10, 0
  br i1 %11, label %12, label %42

12:                                               ; preds = %9
  %13 = load i32, ptr %5, align 4
  %14 = load ptr, ptr %6, align 8
  %15 = load i32, ptr %7, align 4
  %16 = zext i32 %15 to i64
  %17 = call i64 @send(i32 noundef %13, ptr noundef %14, i64 noundef %16, i32 noundef 0)
  %18 = trunc i64 %17 to i32
  store i32 %18, ptr %8, align 4
  %19 = load i32, ptr %8, align 4
  %20 = icmp sle i32 %19, 0
  br i1 %20, label %21, label %34

21:                                               ; preds = %12
  %22 = load i32, ptr %8, align 4
  %23 = icmp ne i32 %22, 0
  br i1 %23, label %24, label %29

24:                                               ; preds = %21
  %25 = call ptr @__errno_location() #8
  %26 = load i32, ptr %25, align 4
  %27 = icmp eq i32 %26, 4
  br i1 %27, label %28, label %29

28:                                               ; preds = %24
  br label %9

29:                                               ; preds = %24, %21
  %30 = call ptr @__errno_location() #8
  %31 = load i32, ptr %30, align 4
  %32 = call ptr @strerror(i32 noundef %31) #9
  %33 = call i32 (i32, ptr, ...) @logg(i32 noundef 5, ptr noundef @.str, ptr noundef %32)
  store i32 1, ptr %4, align 4
  br label %43

34:                                               ; preds = %12
  %35 = load i32, ptr %8, align 4
  %36 = load ptr, ptr %6, align 8
  %37 = sext i32 %35 to i64
  %38 = getelementptr inbounds i8, ptr %36, i64 %37
  store ptr %38, ptr %6, align 8
  %39 = load i32, ptr %8, align 4
  %40 = load i32, ptr %7, align 4
  %41 = sub i32 %40, %39
  store i32 %41, ptr %7, align 4
  br label %9

42:                                               ; preds = %9
  store i32 0, ptr %4, align 4
  br label %43

43:                                               ; preds = %42, %29
  %44 = load i32, ptr %4, align 4
  ret i32 %44
}

; Function Attrs: nounwind uwtable
define i32 @send_stream(i32 noundef %0, ptr noundef %1, ptr noundef %2) #0 {
  %4 = alloca i32, align 4
  %5 = alloca i32, align 4
  %6 = alloca ptr, align 8
  %7 = alloca ptr, align 8
  %8 = alloca [2048 x i32], align 16
  %9 = alloca i32, align 4
  %10 = alloca i32, align 4
  %11 = alloca i64, align 8
  %12 = alloca [10 x i8], align 1
  store i32 %0, ptr %5, align 4
  store ptr %1, ptr %6, align 8
  store ptr %2, ptr %7, align 8
  %13 = load ptr, ptr %7, align 8
  %14 = call ptr @optget(ptr noundef %13, ptr noundef @.str.9)
  %15 = getelementptr inbounds %struct.optstruct, ptr %14, i32 0, i32 3
  %16 = load i64, ptr %15, align 8
  store i64 %16, ptr %11, align 8
  call void @llvm.memcpy.p0.p0.i64(ptr align 1 %12, ptr align 1 @__const.send_stream.zINSTREAM, i64 10, i1 false)
  %17 = load ptr, ptr %6, align 8
  %18 = icmp ne ptr %17, null
  br i1 %18, label %19, label %27

19:                                               ; preds = %3
  %20 = load ptr, ptr %6, align 8
  %21 = call i32 (ptr, i32, ...) @open(ptr noundef %20, i32 noundef 0)
  store i32 %21, ptr %9, align 4
  %22 = icmp slt i32 %21, 0
  br i1 %22, label %23, label %26

23:                                               ; preds = %19
  %24 = load ptr, ptr %6, align 8
  %25 = call i32 (i32, ptr, ...) @logg(i32 noundef 0, ptr noundef @.str.10, ptr noundef %24)
  store i32 0, ptr %4, align 4
  br label %94

26:                                               ; preds = %19
  br label %28

27:                                               ; preds = %3
  store i32 0, ptr %9, align 4
  br label %28

28:                                               ; preds = %27, %26
  %29 = load i32, ptr %5, align 4
  %30 = getelementptr inbounds [10 x i8], ptr %12, i64 0, i64 0
  %31 = call i32 @sendln(i32 noundef %29, ptr noundef %30, i32 noundef 10)
  %32 = icmp ne i32 %31, 0
  br i1 %32, label %33, label %36

33:                                               ; preds = %28
  %34 = load i32, ptr %9, align 4
  %35 = call i32 @close(i32 noundef %34)
  store i32 -1, ptr %4, align 4
  br label %94

36:                                               ; preds = %28
  br label %37

37:                                               ; preds = %74, %36
  %38 = load i32, ptr %9, align 4
  %39 = getelementptr inbounds [2048 x i32], ptr %8, i64 0, i64 1
  %40 = call i64 @read(i32 noundef %38, ptr noundef %39, i64 noundef 8188)
  %41 = trunc i64 %40 to i32
  store i32 %41, ptr %10, align 4
  %42 = icmp sgt i32 %41, 0
  br i1 %42, label %43, label %75

43:                                               ; preds = %37
  %44 = load i32, ptr %10, align 4
  %45 = zext i32 %44 to i64
  %46 = load i64, ptr %11, align 8
  %47 = icmp ugt i64 %45, %46
  br i1 %47, label %48, label %51

48:                                               ; preds = %43
  %49 = load i64, ptr %11, align 8
  %50 = trunc i64 %49 to i32
  store i32 %50, ptr %10, align 4
  br label %51

51:                                               ; preds = %48, %43
  %52 = load i32, ptr %10, align 4
  %53 = call i32 @htonl(i32 noundef %52) #8
  %54 = getelementptr inbounds [2048 x i32], ptr %8, i64 0, i64 0
  store i32 %53, ptr %54, align 16
  %55 = load i32, ptr %5, align 4
  %56 = getelementptr inbounds [2048 x i32], ptr %8, i64 0, i64 0
  %57 = load i32, ptr %10, align 4
  %58 = sext i32 %57 to i64
  %59 = add i64 %58, 4
  %60 = trunc i64 %59 to i32
  %61 = call i32 @sendln(i32 noundef %55, ptr noundef %56, i32 noundef %60)
  %62 = icmp ne i32 %61, 0
  br i1 %62, label %63, label %66

63:                                               ; preds = %51
  %64 = load i32, ptr %9, align 4
  %65 = call i32 @close(i32 noundef %64)
  store i32 -1, ptr %4, align 4
  br label %94

66:                                               ; preds = %51
  %67 = load i32, ptr %10, align 4
  %68 = sext i32 %67 to i64
  %69 = load i64, ptr %11, align 8
  %70 = sub i64 %69, %68
  store i64 %70, ptr %11, align 8
  %71 = load i64, ptr %11, align 8
  %72 = icmp ne i64 %71, 0
  br i1 %72, label %74, label %73

73:                                               ; preds = %66
  store i32 0, ptr %10, align 4
  br label %75

74:                                               ; preds = %66
  br label %37

75:                                               ; preds = %73, %37
  %76 = load i32, ptr %9, align 4
  %77 = call i32 @close(i32 noundef %76)
  %78 = load i32, ptr %10, align 4
  %79 = icmp ne i32 %78, 0
  br i1 %79, label %80, label %89

80:                                               ; preds = %75
  %81 = load ptr, ptr %6, align 8
  %82 = icmp ne ptr %81, null
  br i1 %82, label %83, label %85

83:                                               ; preds = %80
  %84 = load ptr, ptr %6, align 8
  br label %86

85:                                               ; preds = %80
  br label %86

86:                                               ; preds = %85, %83
  %87 = phi ptr [ %84, %83 ], [ @.str.12, %85 ]
  %88 = call i32 (i32, ptr, ...) @logg(i32 noundef 5, ptr noundef @.str.11, ptr noundef %87)
  store i32 0, ptr %4, align 4
  br label %94

89:                                               ; preds = %75
  %90 = getelementptr inbounds [2048 x i32], ptr %8, i64 0, i64 0
  store i32 0, ptr %90, align 16
  %91 = load i32, ptr %5, align 4
  %92 = getelementptr inbounds [2048 x i32], ptr %8, i64 0, i64 0
  %93 = call i32 @sendln(i32 noundef %91, ptr noundef %92, i32 noundef 4)
  store i32 1, ptr %4, align 4
  br label %94

94:                                               ; preds = %89, %86, %63, %33, %23
  %95 = load i32, ptr %4, align 4
  ret i32 %95
}