; Function Attrs: nounwind uwtable
define noundef i32 @send_stream(i32 noundef %0, ptr noundef %1, ptr noundef %2) local_unnamed_addr #0 {
  %4 = alloca [2048 x i32], align 16
  %5 = alloca [10 x i8], align 1
  %6 = tail call ptr @optget(ptr noundef %2, ptr noundef nonnull @.str.9) #14
  %7 = getelementptr inbounds i8, ptr %6, i64 24
  %8 = load i64, ptr %7, align 8
  call void @llvm.memcpy.p0.p0.i64(ptr noundef nonnull align 1 dereferenceable(10) %5, ptr noundef nonnull align 1 dereferenceable(10) @__const.send_stream.zINSTREAM, i64 10, i1 false)
  %.not = icmp eq ptr %1, null
  br i1 %.not, label %14, label %9

9:                                                ; preds = %3
  %10 = tail call i32 (ptr, i32, ...) @open(ptr noundef nonnull %1, i32 noundef 0) #14
  %11 = icmp slt i32 %10, 0
  br i1 %11, label %12, label %14

12:                                               ; preds = %9
  %13 = tail call i32 (i32, ptr, ...) @logg(i32 noundef 0, ptr noundef nonnull @.str.10, ptr noundef nonnull %1) #14
  br label %sendln.exit53

14:                                               ; preds = %3, %9
  %.023 = phi i32 [ %10, %9 ], [ 0, %3 ]
  br label %.outer.split.i

.outer.split.i:                                   ; preds = %.outer.i, %14
  %.010.ph19.i = phi i32 [ %24, %.outer.i ], [ 10, %14 ]
  %.011.ph18.i = phi ptr [ %23, %.outer.i ], [ %5, %14 ]
  %15 = zext i32 %.010.ph19.i to i64
  br label %16

16:                                               ; preds = %20, %.outer.split.i
  %17 = call i64 @send(i32 noundef %0, ptr noundef %.011.ph18.i, i64 noundef %15, i32 noundef 0) #14
  %18 = trunc i64 %17 to i32
  %19 = icmp slt i32 %18, 1
  br i1 %19, label %20, label %.outer.i

20:                                               ; preds = %16
  %.not13.i = icmp ne i32 %18, 0
  %.pre.i = tail call ptr @__errno_location() #15
  %.pre89 = load i32, ptr %.pre.i, align 4
  %21 = icmp eq i32 %.pre89, 4
  %or.cond = select i1 %.not13.i, i1 %21, i1 false
  br i1 %or.cond, label %16, label %26

.outer.i:                                         ; preds = %16
  %22 = and i64 %17, 2147483647
  %23 = getelementptr inbounds i8, ptr %.011.ph18.i, i64 %22
  %24 = sub i32 %.010.ph19.i, %18
  %.not.i = icmp eq i32 %24, 0
  br i1 %.not.i, label %sendln.exit.preheader, label %.outer.split.i

sendln.exit.preheader:                            ; preds = %.outer.i
  %25 = getelementptr inbounds i8, ptr %4, i64 4
  br label %sendln.exit

26:                                               ; preds = %20
  %27 = call ptr @strerror(i32 noundef %.pre89) #14
  %28 = call i32 (i32, ptr, ...) @logg(i32 noundef 5, ptr noundef nonnull @.str, ptr noundef %27) #14
  %29 = call i32 @close(i32 noundef %.023) #14
  br label %sendln.exit53

sendln.exit:                                      ; preds = %sendln.exit.preheader, %.loopexit
  %.0 = phi i64 [ %54, %.loopexit ], [ %8, %sendln.exit.preheader ]
  %30 = call i64 @read(i32 noundef %.023, ptr noundef nonnull %25, i64 noundef 8188) #14
  %31 = trunc i64 %30 to i32
  %32 = icmp sgt i32 %31, 0
  br i1 %32, label %33, label %56

33:                                               ; preds = %sendln.exit
  %34 = and i64 %30, 2147483647
  %35 = icmp ugt i64 %34, %.0
  %36 = trunc nuw nsw i64 %.0 to i32
  %spec.select = select i1 %35, i32 %36, i32 %31
  %37 = call i32 @htonl(i32 noundef %spec.select) #15
  store i32 %37, ptr %4, align 16
  %38 = add i32 %spec.select, 4
  %.not17.i = icmp eq i32 %38, 0
  br i1 %.not17.i, label %.loopexit, label %.outer.split.i34

.outer.split.i34:                                 ; preds = %33, %.outer.i37
  %.010.ph19.i35 = phi i32 [ %48, %.outer.i37 ], [ %38, %33 ]
  %.011.ph18.i36 = phi ptr [ %47, %.outer.i37 ], [ %4, %33 ]
  %39 = zext i32 %.010.ph19.i35 to i64
  br label %40

40:                                               ; preds = %44, %.outer.split.i34
  %41 = call i64 @send(i32 noundef %0, ptr noundef %.011.ph18.i36, i64 noundef %39, i32 noundef 0) #14
  %42 = trunc i64 %41 to i32
  %43 = icmp slt i32 %42, 1
  br i1 %43, label %44, label %.outer.i37

44:                                               ; preds = %40
  %.not13.i40 = icmp ne i32 %42, 0
  %.pre.i41 = tail call ptr @__errno_location() #15
  %.pre = load i32, ptr %.pre.i41, align 4
  %45 = icmp eq i32 %.pre, 4
  %or.cond104 = select i1 %.not13.i40, i1 %45, i1 false
  br i1 %or.cond104, label %40, label %49

.outer.i37:                                       ; preds = %40
  %46 = and i64 %41, 2147483647
  %47 = getelementptr inbounds i8, ptr %.011.ph18.i36, i64 %46
  %48 = sub i32 %.010.ph19.i35, %42
  %.not.i38 = icmp eq i32 %48, 0
  br i1 %.not.i38, label %.loopexit, label %.outer.split.i34

49:                                               ; preds = %44
  %50 = call ptr @strerror(i32 noundef %.pre) #14
  %51 = call i32 (i32, ptr, ...) @logg(i32 noundef 5, ptr noundef nonnull @.str, ptr noundef %50) #14
  %52 = call i32 @close(i32 noundef %.023) #14
  br label %sendln.exit53

.loopexit:                                        ; preds = %.outer.i37, %33
  %53 = zext nneg i32 %spec.select to i64
  %54 = sub i64 %.0, %53
  %.not32 = icmp eq i64 %54, 0
  br i1 %.not32, label %.thread, label %sendln.exit

.thread:                                          ; preds = %.loopexit
  %55 = call i32 @close(i32 noundef %.023) #14
  br label %61

56:                                               ; preds = %sendln.exit
  %57 = call i32 @close(i32 noundef %.023) #14
  %.not33 = icmp eq i32 %31, 0
  br i1 %.not33, label %61, label %58

58:                                               ; preds = %56
  %59 = select i1 %.not, ptr @.str.12, ptr %1
  %60 = call i32 (i32, ptr, ...) @logg(i32 noundef 5, ptr noundef nonnull @.str.11, ptr noundef nonnull %59) #14
  br label %sendln.exit53

61:                                               ; preds = %.thread, %56
  store i32 0, ptr %4, align 16
  br label %.outer.split.i44

.outer.split.i44:                                 ; preds = %.outer.i47, %61
  %.010.ph19.i45 = phi i32 [ %73, %.outer.i47 ], [ 4, %61 ]
  %.011.ph18.i46 = phi ptr [ %72, %.outer.i47 ], [ %4, %61 ]
  %62 = zext i32 %.010.ph19.i45 to i64
  br label %63

63:                                               ; preds = %67, %.outer.split.i44
  %64 = call i64 @send(i32 noundef %0, ptr noundef %.011.ph18.i46, i64 noundef %62, i32 noundef 0) #14
  %65 = trunc i64 %64 to i32
  %66 = icmp slt i32 %65, 1
  br i1 %66, label %67, label %.outer.i47

67:                                               ; preds = %63
  %.not13.i50 = icmp ne i32 %65, 0
  %.pre.i51 = tail call ptr @__errno_location() #15
  %.pre88 = load i32, ptr %.pre.i51, align 4
  %68 = icmp eq i32 %.pre88, 4
  %or.cond105 = select i1 %.not13.i50, i1 %68, i1 false
  br i1 %or.cond105, label %63, label %split.i52

split.i52:                                        ; preds = %67
  %69 = call ptr @strerror(i32 noundef %.pre88) #14
  %70 = call i32 (i32, ptr, ...) @logg(i32 noundef 5, ptr noundef nonnull @.str, ptr noundef %69) #14
  br label %sendln.exit53

.outer.i47:                                       ; preds = %63
  %71 = and i64 %64, 2147483647
  %72 = getelementptr inbounds i8, ptr %.011.ph18.i46, i64 %71
  %73 = sub i32 %.010.ph19.i45, %65
  %.not.i48 = icmp eq i32 %73, 0
  br i1 %.not.i48, label %sendln.exit53, label %.outer.split.i44

sendln.exit53:                                    ; preds = %.outer.i47, %split.i52, %58, %49, %26, %12
  %.024 = phi i32 [ 0, %12 ], [ -1, %26 ], [ -1, %49 ], [ 0, %58 ], [ 1, %split.i52 ], [ 1, %.outer.i47 ]
  ret i32 %.024
}